; Function Attrs: mustprogress uwtable
define void @_ZN6marisa8grimoire2io6Writer5open_EPKc(ptr noundef nonnull writeonly align 8 captures(none) dereferenceable(25) %0, ptr noundef readonly captures(none) %1) local_unnamed_addr #8 align 2 personality ptr @__gxx_personality_v0 {
  %3 = tail call noalias ptr @fopen(ptr noundef %1, ptr noundef nonnull @.str.5)
  %4 = icmp eq ptr %3, null
  br i1 %4, label %5, label %11

5:                                                ; preds = %2
  %6 = tail call ptr @__cxa_allocate_exception(i64 32) #20
  store ptr getelementptr inbounds nuw inrange(-16, 24) (i8, ptr @_ZTVN6marisa9ExceptionE, i64 16), ptr %6, align 8, !tbaa !17
  %7 = getelementptr inbounds nuw i8, ptr %6, i64 8
  store ptr @.str, ptr %7, align 8, !tbaa !19
  %8 = getelementptr inbounds nuw i8, ptr %6, i64 16
  store i32 94, ptr %8, align 8, !tbaa !24
  %9 = getelementptr inbounds nuw i8, ptr %6, i64 20
  store i32 9, ptr %9, align 4, !tbaa !25
  %10 = getelementptr inbounds nuw i8, ptr %6, i64 24
  store ptr @.str.6, ptr %10, align 8, !tbaa !26
  tail call void @__cxa_throw(ptr nonnull %6, ptr nonnull @_ZTIN6marisa9ExceptionE, ptr nonnull @_ZNSt9exceptionD2Ev) #22
  unreachable

11:                                               ; preds = %2
  store ptr %3, ptr %0, align 8, !tbaa !3
  %12 = getelementptr inbounds nuw i8, ptr %0, i64 24
  store i8 1, ptr %12, align 8, !tbaa !14
  ret void
}